target datalayout = "e-m:e-p270:32:32-p271:32:32-p272:64:64-i64:64-i128:128-f80:128-n8:16:32:64-S128"
target triple = "x86_64-pc-linux-gnu"

%struct._proto_node = type { ptr, ptr, ptr, ptr, ptr, ptr, ptr }
%struct.field_info = type { ptr, i32, i32, i32, i32, i32, i32, ptr, ptr, ptr, i32, i32 }
%struct.nstime_t = type { i64, i32 }
%struct.nvme_cmd_ctx = type { i32, i32, i32, [16 x i32], i32, %struct.nstime_t, %struct.nstime_t, i32, i8, %union.anon, i8 }
%union.anon = type { %struct.anon.1 }
%struct.anon.1 = type { i32, i32, i32, i32, i16, i8, i8, i64, i8 }

; Function Attrs: inlinehint nounwind null_pointer_is_valid sspstrong uwtable
define internal void @proto_item_set_generated(ptr noundef %0) #3 {
  %2 = alloca ptr, align 8
  store ptr %0, ptr %2, align 8
  %3 = load ptr, ptr %2, align 8
  %4 = icmp ne ptr %3, null
  br i1 %4, label %5, label %24

5:                                                ; preds = %1
  br label %6

6:                                                ; preds = %5
  %7 = load ptr, ptr %2, align 8
  %8 = getelementptr inbounds nuw %struct._proto_node, ptr %7, i32 0, i32 5
  %9 = load ptr, ptr %8, align 8
  %10 = icmp ne ptr %9, null
  br i1 %10, label %11, label %22

11:                                               ; preds = %6
  %12 = load ptr, ptr %2, align 8
  %13 = getelementptr inbounds nuw %struct._proto_node, ptr %12, i32 0, i32 5
  %14 = load ptr, ptr %13, align 8
  %15 = getelementptr inbounds nuw %struct.field_info, ptr %14, i32 0, i32 6
  %16 = load i32, ptr %15, align 4
  %17 = or i32 %16, 2
  %18 = load ptr, ptr %2, align 8
  %19 = getelementptr inbounds nuw %struct._proto_node, ptr %18, i32 0, i32 5
  %20 = load ptr, ptr %19, align 8
  %21 = getelementptr inbounds nuw %struct.field_info, ptr %20, i32 0, i32 6
  store i32 %17, ptr %21, align 4
  br label %22

22:                                               ; preds = %11, %6
  br label %23

23:                                               ; preds = %22
  br label %24

24:                                               ; preds = %23, %1
  ret void
}

; Function Attrs: null_pointer_is_valid sspstrong uwtable
define hidden void @nvme_publish_link(ptr noundef %0, ptr noundef %1, i32 noundef %2, i32 noundef %3, i1 noundef zeroext %4) #0 {
  %6 = alloca ptr, align 8
  %7 = alloca ptr, align 8
  %8 = alloca i32, align 4
  %9 = alloca i32, align 4
  %10 = alloca i8, align 1
  %11 = alloca ptr, align 8
  store ptr %0, ptr %6, align 8
  store ptr %1, ptr %7, align 8
  store i32 %2, ptr %8, align 4
  store i32 %3, ptr %9, align 4
  %12 = zext i1 %4 to i8
  store i8 %12, ptr %10, align 1
  call void @llvm.lifetime.start.p0(i64 8, ptr %11) #9
  %13 = load i32, ptr %9, align 4
  %14 = icmp ne i32 %13, 0
  br i1 %14, label %18, label %15

15:                                               ; preds = %5
  %16 = load i8, ptr %10, align 1, !range !6, !noundef !7
  %17 = trunc i8 %16 to i1
  br i1 %17, label %18, label %25

18:                                               ; preds = %15, %5
  %19 = load ptr, ptr %6, align 8
  %20 = load i32, ptr %8, align 4
  %21 = load ptr, ptr %7, align 8
  %22 = load i32, ptr %9, align 4
  %23 = call ptr @proto_tree_add_uint(ptr noundef %19, i32 noundef %20, ptr noundef %21, i32 noundef 0, i32 noundef 0, i32 noundef %22)
  store ptr %23, ptr %11, align 8
  %24 = load ptr, ptr %11, align 8
  call void @proto_item_set_generated(ptr noundef %24)
  br label %25

25:                                               ; preds = %18, %15
  call void @llvm.lifetime.end.p0(i64 8, ptr %11) #9
  ret void
}

; Function Attrs: null_pointer_is_valid sspstrong uwtable
define hidden void @nvme_publish_to_cqe_link(ptr noundef %0, ptr noundef %1, i32 noundef %2, ptr noundef %3) #0 {
  %5 = alloca ptr, align 8
  %6 = alloca ptr, align 8
  %7 = alloca i32, align 4
  %8 = alloca ptr, align 8
  store ptr %0, ptr %5, align 8
  store ptr %1, ptr %6, align 8
  store i32 %2, ptr %7, align 4
  store ptr %3, ptr %8, align 8
  %9 = load ptr, ptr %5, align 8
  %10 = load ptr, ptr %6, align 8
  %11 = load i32, ptr %7, align 4
  %12 = load ptr, ptr %8, align 8
  %13 = getelementptr inbounds nuw %struct.nvme_cmd_ctx, ptr %12, i32 0, i32 1
  %14 = load i32, ptr %13, align 4
  call void @nvme_publish_link(ptr noundef %9, ptr noundef %10, i32 noundef %11, i32 noundef %14, i1 noundef zeroext false)
  ret void
}